target datalayout = "e-m:e-p270:32:32-p271:32:32-p272:64:64-i64:64-i128:128-f80:128-n8:16:32:64-S128"
target triple = "x86_64-pc-linux-gnu"

%struct._YR_ARENA_PAGE = type { ptr, ptr, i64, i64, ptr, ptr, ptr, ptr }
%struct._YR_ARENA = type { i32, ptr, ptr }
%struct._YR_RELOC = type { i32, ptr }

@.str = private unnamed_addr constant [13 x i8] c"page != NULL\00", align 1
@.str.1 = private unnamed_addr constant [114 x i8] c"generated/home/dtcxzyw/WorkSpace/Projects/compilers/llvm-opt-benchmark/bench/clamav/clamav/libclamav/yara_arena.c\00", align 1
@__PRETTY_FUNCTION__.yr_arena_coalesce = private unnamed_addr constant [34 x i8] c"int yr_arena_coalesce(YR_ARENA *)\00", align 1

; Function Attrs: nounwind uwtable
define ptr @_yr_arena_page_for_address(ptr noundef %0, ptr noundef %1) #0 {
  %3 = alloca ptr, align 8
  %4 = alloca ptr, align 8
  %5 = alloca ptr, align 8
  %6 = alloca ptr, align 8
  store ptr %0, ptr %4, align 8
  store ptr %1, ptr %5, align 8
  %7 = load ptr, ptr %4, align 8
  %8 = getelementptr inbounds %struct._YR_ARENA, ptr %7, i32 0, i32 2
  %9 = load ptr, ptr %8, align 8
  store ptr %9, ptr %6, align 8
  %10 = load ptr, ptr %6, align 8
  %11 = icmp ne ptr %10, null
  br i1 %11, label %12, label %30

12:                                               ; preds = %2
  %13 = load ptr, ptr %5, align 8
  %14 = load ptr, ptr %6, align 8
  %15 = getelementptr inbounds %struct._YR_ARENA_PAGE, ptr %14, i32 0, i32 1
  %16 = load ptr, ptr %15, align 8
  %17 = icmp uge ptr %13, %16
  br i1 %17, label %18, label %30

18:                                               ; preds = %12
  %19 = load ptr, ptr %5, align 8
  %20 = load ptr, ptr %6, align 8
  %21 = getelementptr inbounds %struct._YR_ARENA_PAGE, ptr %20, i32 0, i32 1
  %22 = load ptr, ptr %21, align 8
  %23 = load ptr, ptr %6, align 8
  %24 = getelementptr inbounds %struct._YR_ARENA_PAGE, ptr %23, i32 0, i32 3
  %25 = load i64, ptr %24, align 8
  %26 = getelementptr inbounds i8, ptr %22, i64 %25
  %27 = icmp ult ptr %19, %26
  br i1 %27, label %28, label %30

28:                                               ; preds = %18
  %29 = load ptr, ptr %6, align 8
  store ptr %29, ptr %3, align 8
  br label %60

30:                                               ; preds = %18, %12, %2
  %31 = load ptr, ptr %4, align 8
  %32 = getelementptr inbounds %struct._YR_ARENA, ptr %31, i32 0, i32 1
  %33 = load ptr, ptr %32, align 8
  store ptr %33, ptr %6, align 8
  br label %34

34:                                               ; preds = %55, %30
  %35 = load ptr, ptr %6, align 8
  %36 = icmp ne ptr %35, null
  br i1 %36, label %37, label %59

37:                                               ; preds = %34
  %38 = load ptr, ptr %5, align 8
  %39 = load ptr, ptr %6, align 8
  %40 = getelementptr inbounds %struct._YR_ARENA_PAGE, ptr %39, i32 0, i32 1
  %41 = load ptr, ptr %40, align 8
  %42 = icmp uge ptr %38, %41
  br i1 %42, label %43, label %55

43:                                               ; preds = %37
  %44 = load ptr, ptr %5, align 8
  %45 = load ptr, ptr %6, align 8
  %46 = getelementptr inbounds %struct._YR_ARENA_PAGE, ptr %45, i32 0, i32 1
  %47 = load ptr, ptr %46, align 8
  %48 = load ptr, ptr %6, align 8
  %49 = getelementptr inbounds %struct._YR_ARENA_PAGE, ptr %48, i32 0, i32 3
  %50 = load i64, ptr %49, align 8
  %51 = getelementptr inbounds i8, ptr %47, i64 %50
  %52 = icmp ult ptr %44, %51
  br i1 %52, label %53, label %55

53:                                               ; preds = %43
  %54 = load ptr, ptr %6, align 8
  store ptr %54, ptr %3, align 8
  br label %60

55:                                               ; preds = %43, %37
  %56 = load ptr, ptr %6, align 8
  %57 = getelementptr inbounds %struct._YR_ARENA_PAGE, ptr %56, i32 0, i32 6
  %58 = load ptr, ptr %57, align 8
  store ptr %58, ptr %6, align 8
  br label %34

59:                                               ; preds = %34
  store ptr null, ptr %3, align 8
  br label %60

60:                                               ; preds = %59, %53, %28
  %61 = load ptr, ptr %3, align 8
  ret ptr %61
}

; Function Attrs: nounwind uwtable
define ptr @_yr_arena_new_page(i64 noundef %0) #0 {
  %2 = alloca ptr, align 8
  %3 = alloca i64, align 8
  %4 = alloca ptr, align 8
  store i64 %0, ptr %3, align 8
  %5 = call ptr @cli_max_malloc(i64 noundef 64)
  store ptr %5, ptr %4, align 8
  %6 = load ptr, ptr %4, align 8
  %7 = icmp eq ptr %6, null
  br i1 %7, label %8, label %9

8:                                                ; preds = %1
  store ptr null, ptr %2, align 8
  br label %35

9:                                                ; preds = %1
  %10 = load i64, ptr %3, align 8
  %11 = call ptr @cli_max_malloc(i64 noundef %10)
  %12 = load ptr, ptr %4, align 8
  %13 = getelementptr inbounds %struct._YR_ARENA_PAGE, ptr %12, i32 0, i32 1
  store ptr %11, ptr %13, align 8
  %14 = load ptr, ptr %4, align 8
  %15 = getelementptr inbounds %struct._YR_ARENA_PAGE, ptr %14, i32 0, i32 1
  %16 = load ptr, ptr %15, align 8
  %17 = icmp eq ptr %16, null
  br i1 %17, label %18, label %20

18:                                               ; preds = %9
  %19 = load ptr, ptr %4, align 8
  call void @free(ptr noundef %19) #8
  store ptr null, ptr %2, align 8
  br label %35

20:                                               ; preds = %9
  %21 = load i64, ptr %3, align 8
  %22 = load ptr, ptr %4, align 8
  %23 = getelementptr inbounds %struct._YR_ARENA_PAGE, ptr %22, i32 0, i32 2
  store i64 %21, ptr %23, align 8
  %24 = load ptr, ptr %4, align 8
  %25 = getelementptr inbounds %struct._YR_ARENA_PAGE, ptr %24, i32 0, i32 3
  store i64 0, ptr %25, align 8
  %26 = load ptr, ptr %4, align 8
  %27 = getelementptr inbounds %struct._YR_ARENA_PAGE, ptr %26, i32 0, i32 6
  store ptr null, ptr %27, align 8
  %28 = load ptr, ptr %4, align 8
  %29 = getelementptr inbounds %struct._YR_ARENA_PAGE, ptr %28, i32 0, i32 7
  store ptr null, ptr %29, align 8
  %30 = load ptr, ptr %4, align 8
  %31 = getelementptr inbounds %struct._YR_ARENA_PAGE, ptr %30, i32 0, i32 4
  store ptr null, ptr %31, align 8
  %32 = load ptr, ptr %4, align 8
  %33 = getelementptr inbounds %struct._YR_ARENA_PAGE, ptr %32, i32 0, i32 5
  store ptr null, ptr %33, align 8
  %34 = load ptr, ptr %4, align 8
  store ptr %34, ptr %2, align 8
  br label %35

35:                                               ; preds = %20, %18, %8
  %36 = load ptr, ptr %2, align 8
  ret ptr %36
}

; Function Attrs: nounwind uwtable
define i32 @yr_arena_coalesce(ptr noundef %0) #0 {
  %2 = alloca i32, align 4
  %3 = alloca ptr, align 8
  %4 = alloca ptr, align 8
  %5 = alloca ptr, align 8
  %6 = alloca ptr, align 8
  %7 = alloca ptr, align 8
  %8 = alloca ptr, align 8
  %9 = alloca ptr, align 8
  %10 = alloca i32, align 4
  store ptr %0, ptr %3, align 8
  store i32 0, ptr %10, align 4
  %11 = load ptr, ptr %3, align 8
  %12 = getelementptr inbounds %struct._YR_ARENA, ptr %11, i32 0, i32 1
  %13 = load ptr, ptr %12, align 8
  store ptr %13, ptr %4, align 8
  br label %14

14:                                               ; preds = %17, %1
  %15 = load ptr, ptr %4, align 8
  %16 = icmp ne ptr %15, null
  br i1 %16, label %17, label %28

17:                                               ; preds = %14
  %18 = load ptr, ptr %4, align 8
  %19 = getelementptr inbounds %struct._YR_ARENA_PAGE, ptr %18, i32 0, i32 3
  %20 = load i64, ptr %19, align 8
  %21 = load i32, ptr %10, align 4
  %22 = sext i32 %21 to i64
  %23 = add i64 %22, %20
  %24 = trunc i64 %23 to i32
  store i32 %24, ptr %10, align 4
  %25 = load ptr, ptr %4, align 8
  %26 = getelementptr inbounds %struct._YR_ARENA_PAGE, ptr %25, i32 0, i32 6
  %27 = load ptr, ptr %26, align 8
  store ptr %27, ptr %4, align 8
  br label %14

28:                                               ; preds = %14
  %29 = load i32, ptr %10, align 4
  %30 = sext i32 %29 to i64
  %31 = call ptr @_yr_arena_new_page(i64 noundef %30)
  store ptr %31, ptr %5, align 8
  %32 = load ptr, ptr %5, align 8
  %33 = icmp eq ptr %32, null
  br i1 %33, label %34, label %35

34:                                               ; preds = %28
  store i32 1, ptr %2, align 4
  br label %198

35:                                               ; preds = %28
  %36 = load ptr, ptr %3, align 8
  %37 = getelementptr inbounds %struct._YR_ARENA, ptr %36, i32 0, i32 1
  %38 = load ptr, ptr %37, align 8
  store ptr %38, ptr %4, align 8
  br label %39

39:                                               ; preds = %115, %35
  %40 = load ptr, ptr %4, align 8
  %41 = icmp ne ptr %40, null
  br i1 %41, label %42, label %126

42:                                               ; preds = %39
  %43 = load ptr, ptr %5, align 8
  %44 = getelementptr inbounds %struct._YR_ARENA_PAGE, ptr %43, i32 0, i32 1
  %45 = load ptr, ptr %44, align 8
  %46 = load ptr, ptr %5, align 8
  %47 = getelementptr inbounds %struct._YR_ARENA_PAGE, ptr %46, i32 0, i32 3
  %48 = load i64, ptr %47, align 8
  %49 = getelementptr inbounds i8, ptr %45, i64 %48
  %50 = load ptr, ptr %4, align 8
  %51 = getelementptr inbounds %struct._YR_ARENA_PAGE, ptr %50, i32 0, i32 0
  store ptr %49, ptr %51, align 8
  %52 = load ptr, ptr %4, align 8
  %53 = getelementptr inbounds %struct._YR_ARENA_PAGE, ptr %52, i32 0, i32 0
  %54 = load ptr, ptr %53, align 8
  %55 = load ptr, ptr %4, align 8
  %56 = getelementptr inbounds %struct._YR_ARENA_PAGE, ptr %55, i32 0, i32 1
  %57 = load ptr, ptr %56, align 8
  %58 = load ptr, ptr %4, align 8
  %59 = getelementptr inbounds %struct._YR_ARENA_PAGE, ptr %58, i32 0, i32 3
  %60 = load i64, ptr %59, align 8
  call void @llvm.memcpy.p0.p0.i64(ptr align 1 %54, ptr align 1 %57, i64 %60, i1 false)
  %61 = load ptr, ptr %4, align 8
  %62 = getelementptr inbounds %struct._YR_ARENA_PAGE, ptr %61, i32 0, i32 4
  %63 = load ptr, ptr %62, align 8
  store ptr %63, ptr %7, align 8
  br label %64

64:                                               ; preds = %67, %42
  %65 = load ptr, ptr %7, align 8
  %66 = icmp ne ptr %65, null
  br i1 %66, label %67, label %80

67:                                               ; preds = %64
  %68 = load ptr, ptr %5, align 8
  %69 = getelementptr inbounds %struct._YR_ARENA_PAGE, ptr %68, i32 0, i32 3
  %70 = load i64, ptr %69, align 8
  %71 = load ptr, ptr %7, align 8
  %72 = getelementptr inbounds %struct._YR_RELOC, ptr %71, i32 0, i32 0
  %73 = load i32, ptr %72, align 8
  %74 = sext i32 %73 to i64
  %75 = add i64 %74, %70
  %76 = trunc i64 %75 to i32
  store i32 %76, ptr %72, align 8
  %77 = load ptr, ptr %7, align 8
  %78 = getelementptr inbounds %struct._YR_RELOC, ptr %77, i32 0, i32 1
  %79 = load ptr, ptr %78, align 8
  store ptr %79, ptr %7, align 8
  br label %64

80:                                               ; preds = %64
  %81 = load ptr, ptr %5, align 8
  %82 = getelementptr inbounds %struct._YR_ARENA_PAGE, ptr %81, i32 0, i32 4
  %83 = load ptr, ptr %82, align 8
  %84 = icmp eq ptr %83, null
  br i1 %84, label %85, label %91

85:                                               ; preds = %80
  %86 = load ptr, ptr %4, align 8
  %87 = getelementptr inbounds %struct._YR_ARENA_PAGE, ptr %86, i32 0, i32 4
  %88 = load ptr, ptr %87, align 8
  %89 = load ptr, ptr %5, align 8
  %90 = getelementptr inbounds %struct._YR_ARENA_PAGE, ptr %89, i32 0, i32 4
  store ptr %88, ptr %90, align 8
  br label %91

91:                                               ; preds = %85, %80
  %92 = load ptr, ptr %5, align 8
  %93 = getelementptr inbounds %struct._YR_ARENA_PAGE, ptr %92, i32 0, i32 5
  %94 = load ptr, ptr %93, align 8
  %95 = icmp ne ptr %94, null
  br i1 %95, label %96, label %104

96:                                               ; preds = %91
  %97 = load ptr, ptr %4, align 8
  %98 = getelementptr inbounds %struct._YR_ARENA_PAGE, ptr %97, i32 0, i32 4
  %99 = load ptr, ptr %98, align 8
  %100 = load ptr, ptr %5, align 8
  %101 = getelementptr inbounds %struct._YR_ARENA_PAGE, ptr %100, i32 0, i32 5
  %102 = load ptr, ptr %101, align 8
  %103 = getelementptr inbounds %struct._YR_RELOC, ptr %102, i32 0, i32 1
  store ptr %99, ptr %103, align 8
  br label %104

104:                                              ; preds = %96, %91
  %105 = load ptr, ptr %4, align 8
  %106 = getelementptr inbounds %struct._YR_ARENA_PAGE, ptr %105, i32 0, i32 5
  %107 = load ptr, ptr %106, align 8
  %108 = icmp ne ptr %107, null
  br i1 %108, label %109, label %115

109:                                              ; preds = %104
  %110 = load ptr, ptr %4, align 8
  %111 = getelementptr inbounds %struct._YR_ARENA_PAGE, ptr %110, i32 0, i32 5
  %112 = load ptr, ptr %111, align 8
  %113 = load ptr, ptr %5, align 8
  %114 = getelementptr inbounds %struct._YR_ARENA_PAGE, ptr %113, i32 0, i32 5
  store ptr %112, ptr %114, align 8
  br label %115

115:                                              ; preds = %109, %104
  %116 = load ptr, ptr %4, align 8
  %117 = getelementptr inbounds %struct._YR_ARENA_PAGE, ptr %116, i32 0, i32 3
  %118 = load i64, ptr %117, align 8
  %119 = load ptr, ptr %5, align 8
  %120 = getelementptr inbounds %struct._YR_ARENA_PAGE, ptr %119, i32 0, i32 3
  %121 = load i64, ptr %120, align 8
  %122 = add i64 %121, %118
  store i64 %122, ptr %120, align 8
  %123 = load ptr, ptr %4, align 8
  %124 = getelementptr inbounds %struct._YR_ARENA_PAGE, ptr %123, i32 0, i32 6
  %125 = load ptr, ptr %124, align 8
  store ptr %125, ptr %4, align 8
  br label %39

126:                                              ; preds = %39
  %127 = load ptr, ptr %5, align 8
  %128 = getelementptr inbounds %struct._YR_ARENA_PAGE, ptr %127, i32 0, i32 4
  %129 = load ptr, ptr %128, align 8
  store ptr %129, ptr %7, align 8
  br label %130

130:                                              ; preds = %167, %126
  %131 = load ptr, ptr %7, align 8
  %132 = icmp ne ptr %131, null
  br i1 %132, label %133, label %171

133:                                              ; preds = %130
  %134 = load ptr, ptr %5, align 8
  %135 = getelementptr inbounds %struct._YR_ARENA_PAGE, ptr %134, i32 0, i32 1
  %136 = load ptr, ptr %135, align 8
  %137 = load ptr, ptr %7, align 8
  %138 = getelementptr inbounds %struct._YR_RELOC, ptr %137, i32 0, i32 0
  %139 = load i32, ptr %138, align 8
  %140 = sext i32 %139 to i64
  %141 = getelementptr inbounds i8, ptr %136, i64 %140
  store ptr %141, ptr %8, align 8
  %142 = load ptr, ptr %8, align 8
  %143 = load ptr, ptr %142, align 8
  store ptr %143, ptr %9, align 8
  %144 = load ptr, ptr %9, align 8
  %145 = icmp ne ptr %144, null
  br i1 %145, label %146, label %167

146:                                              ; preds = %133
  %147 = load ptr, ptr %3, align 8
  %148 = load ptr, ptr %9, align 8
  %149 = call ptr @_yr_arena_page_for_address(ptr noundef %147, ptr noundef %148)
  store ptr %149, ptr %4, align 8
  %150 = load ptr, ptr %4, align 8
  %151 = icmp ne ptr %150, null
  br i1 %151, label %152, label %153

152:                                              ; preds = %146
  br label %154

153:                                              ; preds = %146
  call void @__assert_fail(ptr noundef @.str, ptr noundef @.str.1, i32 noundef 466, ptr noundef @__PRETTY_FUNCTION__.yr_arena_coalesce) #9
  unreachable

154:                                              ; preds = %152
  %155 = load ptr, ptr %4, align 8
  %156 = getelementptr inbounds %struct._YR_ARENA_PAGE, ptr %155, i32 0, i32 0
  %157 = load ptr, ptr %156, align 8
  %158 = load ptr, ptr %9, align 8
  %159 = load ptr, ptr %4, align 8
  %160 = getelementptr inbounds %struct._YR_ARENA_PAGE, ptr %159, i32 0, i32 1
  %161 = load ptr, ptr %160, align 8
  %162 = ptrtoint ptr %158 to i64
  %163 = ptrtoint ptr %161 to i64
  %164 = sub i64 %162, %163
  %165 = getelementptr inbounds i8, ptr %157, i64 %164
  %166 = load ptr, ptr %8, align 8
  store ptr %165, ptr %166, align 8
  br label %167

167:                                              ; preds = %154, %133
  %168 = load ptr, ptr %7, align 8
  %169 = getelementptr inbounds %struct._YR_RELOC, ptr %168, i32 0, i32 1
  %170 = load ptr, ptr %169, align 8
  store ptr %170, ptr %7, align 8
  br label %130

171:                                              ; preds = %130
  %172 = load ptr, ptr %3, align 8
  %173 = getelementptr inbounds %struct._YR_ARENA, ptr %172, i32 0, i32 1
  %174 = load ptr, ptr %173, align 8
  store ptr %174, ptr %4, align 8
  br label %175

175:                                              ; preds = %178, %171
  %176 = load ptr, ptr %4, align 8
  %177 = icmp ne ptr %176, null
  br i1 %177, label %178, label %187

178:                                              ; preds = %175
  %179 = load ptr, ptr %4, align 8
  %180 = getelementptr inbounds %struct._YR_ARENA_PAGE, ptr %179, i32 0, i32 6
  %181 = load ptr, ptr %180, align 8
  store ptr %181, ptr %6, align 8
  %182 = load ptr, ptr %4, align 8
  %183 = getelementptr inbounds %struct._YR_ARENA_PAGE, ptr %182, i32 0, i32 1
  %184 = load ptr, ptr %183, align 8
  call void @free(ptr noundef %184) #8
  %185 = load ptr, ptr %4, align 8
  call void @free(ptr noundef %185) #8
  %186 = load ptr, ptr %6, align 8
  store ptr %186, ptr %4, align 8
  br label %175

187:                                              ; preds = %175
  %188 = load ptr, ptr %5, align 8
  %189 = load ptr, ptr %3, align 8
  %190 = getelementptr inbounds %struct._YR_ARENA, ptr %189, i32 0, i32 1
  store ptr %188, ptr %190, align 8
  %191 = load ptr, ptr %5, align 8
  %192 = load ptr, ptr %3, align 8
  %193 = getelementptr inbounds %struct._YR_ARENA, ptr %192, i32 0, i32 2
  store ptr %191, ptr %193, align 8
  %194 = load ptr, ptr %3, align 8
  %195 = getelementptr inbounds %struct._YR_ARENA, ptr %194, i32 0, i32 0
  %196 = load i32, ptr %195, align 8
  %197 = or i32 %196, 2
  store i32 %197, ptr %195, align 8
  store i32 0, ptr %2, align 4
  br label %198

198:                                              ; preds = %187, %34
  %199 = load i32, ptr %2, align 4
  ret i32 %199
}