; Function Attrs: nounwind uwtable
define noundef i32 @yr_arena_coalesce(ptr nocapture noundef %0) local_unnamed_addr #0 {
  %2 = getelementptr inbounds i8, ptr %0, i64 8
  %.05880 = load ptr, ptr %2, align 8
  %.not81 = icmp eq ptr %.05880, null
  br i1 %.not81, label %._crit_edge, label %.lr.ph

.lr.ph:                                           ; preds = %1, %.lr.ph
  %.05883 = phi ptr [ %.058, %.lr.ph ], [ %.05880, %1 ]
  %.082 = phi i32 [ %6, %.lr.ph ], [ 0, %1 ]
  %3 = getelementptr inbounds i8, ptr %.05883, i64 24
  %4 = load i64, ptr %3, align 8
  %5 = trunc i64 %4 to i32
  %6 = add i32 %.082, %5
  %7 = getelementptr inbounds i8, ptr %.05883, i64 48
  %.058 = load ptr, ptr %7, align 8
  %.not = icmp eq ptr %.058, null
  br i1 %.not, label %._crit_edge.loopexit, label %.lr.ph

._crit_edge.loopexit:                             ; preds = %.lr.ph
  %8 = sext i32 %6 to i64
  br label %._crit_edge

._crit_edge:                                      ; preds = %._crit_edge.loopexit, %1
  %.0.lcssa = phi i64 [ 0, %1 ], [ %8, %._crit_edge.loopexit ]
  %9 = tail call ptr @cli_max_malloc(i64 noundef 64) #11
  %10 = icmp eq ptr %9, null
  br i1 %10, label %_yr_arena_new_page.exit.thread, label %11

11:                                               ; preds = %._crit_edge
  %12 = tail call ptr @cli_max_malloc(i64 noundef %.0.lcssa) #11
  %13 = getelementptr inbounds i8, ptr %9, i64 8
  store ptr %12, ptr %13, align 8
  %14 = icmp eq ptr %12, null
  br i1 %14, label %15, label %_yr_arena_new_page.exit

15:                                               ; preds = %11
  tail call void @free(ptr noundef nonnull %9) #11
  br label %_yr_arena_new_page.exit.thread

_yr_arena_new_page.exit:                          ; preds = %11
  %16 = getelementptr inbounds i8, ptr %9, i64 16
  store i64 %.0.lcssa, ptr %16, align 8
  %17 = getelementptr inbounds i8, ptr %9, i64 24
  tail call void @llvm.memset.p0.i64(ptr noundef nonnull align 8 dereferenceable(40) %17, i8 0, i64 40, i1 false)
  %.190 = load ptr, ptr %2, align 8
  %.not6691 = icmp eq ptr %.190, null
  br i1 %.not6691, label %._crit_edge105, label %.lr.ph93

.lr.ph93:                                         ; preds = %_yr_arena_new_page.exit
  %18 = getelementptr inbounds i8, ptr %9, i64 32
  %19 = getelementptr inbounds i8, ptr %9, i64 40
  br label %20

20:                                               ; preds = %.lr.ph93, %47
  %21 = phi i64 [ 0, %.lr.ph93 ], [ %50, %47 ]
  %.192 = phi ptr [ %.190, %.lr.ph93 ], [ %.1, %47 ]
  %22 = load ptr, ptr %13, align 8
  %23 = getelementptr inbounds i8, ptr %22, i64 %21
  store ptr %23, ptr %.192, align 8
  %24 = getelementptr inbounds i8, ptr %.192, i64 8
  %25 = load ptr, ptr %24, align 8
  %26 = getelementptr inbounds i8, ptr %.192, i64 24
  %27 = load i64, ptr %26, align 8
  tail call void @llvm.memcpy.p0.p0.i64(ptr align 1 %23, ptr align 1 %25, i64 %27, i1 false)
  %28 = getelementptr inbounds i8, ptr %.192, i64 32
  %.05984 = load ptr, ptr %28, align 8
  %.not7185 = icmp eq ptr %.05984, null
  br i1 %.not7185, label %._crit_edge89, label %.lr.ph88

.lr.ph88:                                         ; preds = %20, %.lr.ph88
  %.05986 = phi ptr [ %.059, %.lr.ph88 ], [ %.05984, %20 ]
  %29 = load i64, ptr %17, align 8
  %30 = load i32, ptr %.05986, align 8
  %31 = trunc i64 %29 to i32
  %32 = add i32 %30, %31
  store i32 %32, ptr %.05986, align 8
  %33 = getelementptr inbounds i8, ptr %.05986, i64 8
  %.059 = load ptr, ptr %33, align 8
  %.not71 = icmp eq ptr %.059, null
  br i1 %.not71, label %._crit_edge89, label %.lr.ph88

._crit_edge89:                                    ; preds = %.lr.ph88, %20
  %34 = load ptr, ptr %18, align 8
  %35 = icmp eq ptr %34, null
  br i1 %35, label %36, label %38

36:                                               ; preds = %._crit_edge89
  %37 = load ptr, ptr %28, align 8
  store ptr %37, ptr %18, align 8
  br label %38

38:                                               ; preds = %36, %._crit_edge89
  %39 = load ptr, ptr %19, align 8
  %.not72 = icmp eq ptr %39, null
  br i1 %.not72, label %43, label %40

40:                                               ; preds = %38
  %41 = load ptr, ptr %28, align 8
  %42 = getelementptr inbounds i8, ptr %39, i64 8
  store ptr %41, ptr %42, align 8
  br label %43

43:                                               ; preds = %40, %38
  %44 = getelementptr inbounds i8, ptr %.192, i64 40
  %45 = load ptr, ptr %44, align 8
  %.not73 = icmp eq ptr %45, null
  br i1 %.not73, label %47, label %46

46:                                               ; preds = %43
  store ptr %45, ptr %19, align 8
  br label %47

47:                                               ; preds = %46, %43
  %48 = load i64, ptr %26, align 8
  %49 = load i64, ptr %17, align 8
  %50 = add i64 %49, %48
  store i64 %50, ptr %17, align 8
  %51 = getelementptr inbounds i8, ptr %.192, i64 48
  %.1 = load ptr, ptr %51, align 8
  %.not66 = icmp eq ptr %.1, null
  br i1 %.not66, label %._crit_edge94, label %20

._crit_edge94:                                    ; preds = %47
  %.16095.pre = load ptr, ptr %18, align 8
  %.not6796 = icmp eq ptr %.16095.pre, null
  br i1 %.not6796, label %._crit_edge100, label %.lr.ph99

.lr.ph99:                                         ; preds = %._crit_edge94
  %52 = getelementptr inbounds i8, ptr %0, i64 16
  br label %53

53:                                               ; preds = %.lr.ph99, %85
  %.16097 = phi ptr [ %.16095.pre, %.lr.ph99 ], [ %.160, %85 ]
  %54 = load ptr, ptr %13, align 8
  %55 = load i32, ptr %.16097, align 8
  %56 = sext i32 %55 to i64
  %57 = getelementptr inbounds i8, ptr %54, i64 %56
  %58 = load ptr, ptr %57, align 8
  %.not69 = icmp eq ptr %58, null
  br i1 %.not69, label %85, label %59

59:                                               ; preds = %53
  %60 = load ptr, ptr %52, align 8
  %.not.i = icmp eq ptr %60, null
  br i1 %.not.i, label %69, label %61

61:                                               ; preds = %59
  %62 = getelementptr inbounds i8, ptr %60, i64 8
  %63 = load ptr, ptr %62, align 8
  %.not23.i = icmp ugt ptr %63, %58
  br i1 %.not23.i, label %69, label %64

64:                                               ; preds = %61
  %65 = getelementptr inbounds i8, ptr %60, i64 24
  %66 = load i64, ptr %65, align 8
  %67 = getelementptr inbounds i8, ptr %63, i64 %66
  %68 = icmp ugt ptr %67, %58
  br i1 %68, label %_yr_arena_page_for_address.exit, label %69

69:                                               ; preds = %64, %61, %59
  %.026.i = load ptr, ptr %2, align 8
  %.not2427.i = icmp eq ptr %.026.i, null
  br i1 %.not2427.i, label %.loopexit, label %.lr.ph.i

.lr.ph.i:                                         ; preds = %69, %77
  %.028.i = phi ptr [ %.0.i74, %77 ], [ %.026.i, %69 ]
  %70 = getelementptr inbounds i8, ptr %.028.i, i64 8
  %71 = load ptr, ptr %70, align 8
  %.not25.i = icmp ugt ptr %71, %58
  br i1 %.not25.i, label %77, label %72

72:                                               ; preds = %.lr.ph.i
  %73 = getelementptr inbounds i8, ptr %.028.i, i64 24
  %74 = load i64, ptr %73, align 8
  %75 = getelementptr inbounds i8, ptr %71, i64 %74
  %76 = icmp ugt ptr %75, %58
  br i1 %76, label %_yr_arena_page_for_address.exit, label %77

77:                                               ; preds = %72, %.lr.ph.i
  %78 = getelementptr inbounds i8, ptr %.028.i, i64 48
  %.0.i74 = load ptr, ptr %78, align 8
  %.not24.i = icmp eq ptr %.0.i74, null
  br i1 %.not24.i, label %.loopexit, label %.lr.ph.i

.loopexit:                                        ; preds = %69, %77
  tail call void @__assert_fail(ptr noundef nonnull @.str, ptr noundef nonnull @.str.1, i32 noundef 466, ptr noundef nonnull @__PRETTY_FUNCTION__.yr_arena_coalesce) #12
  unreachable

_yr_arena_page_for_address.exit:                  ; preds = %72, %64
  %79 = phi ptr [ %63, %64 ], [ %71, %72 ]
  %.018.i = phi ptr [ %60, %64 ], [ %.028.i, %72 ]
  %80 = load ptr, ptr %.018.i, align 8
  %81 = ptrtoint ptr %58 to i64
  %82 = ptrtoint ptr %79 to i64
  %83 = sub i64 %81, %82
  %84 = getelementptr inbounds i8, ptr %80, i64 %83
  store ptr %84, ptr %57, align 8
  br label %85

85:                                               ; preds = %_yr_arena_page_for_address.exit, %53
  %86 = getelementptr inbounds i8, ptr %.16097, i64 8
  %.160 = load ptr, ptr %86, align 8
  %.not67 = icmp eq ptr %.160, null
  br i1 %.not67, label %._crit_edge100, label %53

._crit_edge100:                                   ; preds = %85, %._crit_edge94
  %.pr = load ptr, ptr %2, align 8
  %.not68101 = icmp eq ptr %.pr, null
  br i1 %.not68101, label %._crit_edge105, label %.lr.ph104

.lr.ph104:                                        ; preds = %._crit_edge100, %.lr.ph104
  %.2102 = phi ptr [ %88, %.lr.ph104 ], [ %.pr, %._crit_edge100 ]
  %87 = getelementptr inbounds i8, ptr %.2102, i64 48
  %88 = load ptr, ptr %87, align 8
  %89 = getelementptr inbounds i8, ptr %.2102, i64 8
  %90 = load ptr, ptr %89, align 8
  tail call void @free(ptr noundef %90) #11
  tail call void @free(ptr noundef nonnull %.2102) #11
  %.not68 = icmp eq ptr %88, null
  br i1 %.not68, label %._crit_edge105, label %.lr.ph104

._crit_edge105:                                   ; preds = %.lr.ph104, %_yr_arena_new_page.exit, %._crit_edge100
  store ptr %9, ptr %2, align 8
  %91 = getelementptr inbounds i8, ptr %0, i64 16
  store ptr %9, ptr %91, align 8
  %92 = load i32, ptr %0, align 8
  %93 = or i32 %92, 2
  store i32 %93, ptr %0, align 8
  br label %_yr_arena_new_page.exit.thread

_yr_arena_new_page.exit.thread:                   ; preds = %._crit_edge, %15, %._crit_edge105
  %.057 = phi i32 [ 0, %._crit_edge105 ], [ 1, %15 ], [ 1, %._crit_edge ]
  ret i32 %.057
}